target datalayout = "e-m:e-p270:32:32-p271:32:32-p272:64:64-i64:64-i128:128-f80:128-n8:16:32:64-S128"
target triple = "x86_64-pc-linux-gnu"

%struct.commit_graft = type { %struct.object_id, i32, [0 x %struct.object_id] }
%struct.object_id = type { [32 x i8], i32 }
%struct.oid_array = type { ptr, i64, i64, i32 }
%struct.shallow_info = type { ptr, ptr, i64, ptr, i64, ptr, ptr, ptr, ptr, ptr, ptr, i64 }
%struct.trace_key = type { ptr, i32, i8 }

@.str = private unnamed_addr constant [10 x i8] c"shallow.c\00", align 1
@the_repository = external global ptr, align 8
@trace_shallow = dso_local global { ptr, i32, i8, [3 x i8] } { ptr @.str.10, i32 0, i8 0, [3 x i8] zeroinitializer }, align 8
@.str.11 = private unnamed_addr constant [31 x i8] c"shallow: prepare_shallow_info\0A\00", align 1
@.str.19 = private unnamed_addr constant [27 x i8] c"size_t overflow: %lu * %lu\00", align 1

; Function Attrs: inlinehint nounwind uwtable
define internal i64 @st_mult(i64 noundef %0, i64 noundef %1) #3 {
  %3 = alloca i64, align 8
  %4 = alloca i64, align 8
  store i64 %0, ptr %3, align 8, !tbaa !56
  store i64 %1, ptr %4, align 8, !tbaa !56
  %5 = load i64, ptr %3, align 8, !tbaa !56
  %6 = icmp ne i64 %5, 0
  br i1 %6, label %7, label %15

7:                                                ; preds = %2
  %8 = load i64, ptr %4, align 8, !tbaa !56
  %9 = load i64, ptr %3, align 8, !tbaa !56
  %10 = udiv i64 -1, %9
  %11 = icmp ugt i64 %8, %10
  br i1 %11, label %12, label %15

12:                                               ; preds = %7
  %13 = load i64, ptr %3, align 8, !tbaa !56
  %14 = load i64, ptr %4, align 8, !tbaa !56
  call void (ptr, ...) @die(ptr noundef @.str.19, i64 noundef %13, i64 noundef %14) #11
  unreachable

15:                                               ; preds = %7, %2
  %16 = load i64, ptr %3, align 8, !tbaa !56
  %17 = load i64, ptr %4, align 8, !tbaa !56
  %18 = mul i64 %16, %17
  ret i64 %18
}

; Function Attrs: inlinehint nounwind uwtable
define internal i32 @trace_pass_fl(ptr noundef %0) #3 {
  %2 = alloca ptr, align 8
  store ptr %0, ptr %2, align 8, !tbaa !140
  %3 = load ptr, ptr %2, align 8, !tbaa !140
  %4 = getelementptr inbounds nuw %struct.trace_key, ptr %3, i32 0, i32 1
  %5 = load i32, ptr %4, align 8, !tbaa !142
  %6 = icmp ne i32 %5, 0
  br i1 %6, label %15, label %7

7:                                                ; preds = %1
  %8 = load ptr, ptr %2, align 8, !tbaa !140
  %9 = getelementptr inbounds nuw %struct.trace_key, ptr %8, i32 0, i32 2
  %10 = load i8, ptr %9, align 4
  %11 = and i8 %10, 1
  %12 = zext i8 %11 to i32
  %13 = icmp ne i32 %12, 0
  %14 = xor i1 %13, true
  br label %15

15:                                               ; preds = %7, %1
  %16 = phi i1 [ true, %1 ], [ %14, %7 ]
  %17 = zext i1 %16 to i32
  ret i32 %17
}

; Function Attrs: nounwind uwtable
define dso_local void @prepare_shallow_info(ptr noundef %0, ptr noundef %1) #0 {
  %3 = alloca ptr, align 8
  %4 = alloca ptr, align 8
  %5 = alloca i64, align 8
  %6 = alloca i32, align 4
  %7 = alloca ptr, align 8
  store ptr %0, ptr %3, align 8, !tbaa !129
  store ptr %1, ptr %4, align 8, !tbaa !107
  br label %8

8:                                                ; preds = %2
  %9 = call i32 @trace_pass_fl(ptr noundef @trace_shallow)
  %10 = icmp ne i32 %9, 0
  br i1 %10, label %11, label %12

11:                                               ; preds = %8
  call void (ptr, i32, ptr, ptr, ...) @trace_printf_key_fl(ptr noundef @.str, i32 noundef 469, ptr noundef @trace_shallow, ptr noundef @.str.11)
  br label %12

12:                                               ; preds = %11, %8
  br label %13

13:                                               ; preds = %12
  %14 = load ptr, ptr %3, align 8, !tbaa !129
  call void @llvm.memset.p0.i64(ptr align 8 %14, i8 0, i64 96, i1 false)
  %15 = load ptr, ptr %4, align 8, !tbaa !107
  %16 = load ptr, ptr %3, align 8, !tbaa !129
  %17 = getelementptr inbounds nuw %struct.shallow_info, ptr %16, i32 0, i32 0
  store ptr %15, ptr %17, align 8, !tbaa !131
  %18 = load ptr, ptr %4, align 8, !tbaa !107
  %19 = icmp ne ptr %18, null
  br i1 %19, label %21, label %20

20:                                               ; preds = %13
  br label %95

21:                                               ; preds = %13
  %22 = load ptr, ptr %4, align 8, !tbaa !107
  %23 = getelementptr inbounds nuw %struct.oid_array, ptr %22, i32 0, i32 1
  %24 = load i64, ptr %23, align 8, !tbaa !114
  %25 = call i64 @st_mult(i64 noundef 8, i64 noundef %24)
  %26 = call ptr @xmalloc(i64 noundef %25)
  %27 = load ptr, ptr %3, align 8, !tbaa !129
  %28 = getelementptr inbounds nuw %struct.shallow_info, ptr %27, i32 0, i32 1
  store ptr %26, ptr %28, align 8, !tbaa !135
  %29 = load ptr, ptr %4, align 8, !tbaa !107
  %30 = getelementptr inbounds nuw %struct.oid_array, ptr %29, i32 0, i32 1
  %31 = load i64, ptr %30, align 8, !tbaa !114
  %32 = call i64 @st_mult(i64 noundef 8, i64 noundef %31)
  %33 = call ptr @xmalloc(i64 noundef %32)
  %34 = load ptr, ptr %3, align 8, !tbaa !129
  %35 = getelementptr inbounds nuw %struct.shallow_info, ptr %34, i32 0, i32 3
  store ptr %33, ptr %35, align 8, !tbaa !136
  call void @llvm.lifetime.start.p0(i64 8, ptr %5) #12
  store i64 0, ptr %5, align 8, !tbaa !56
  br label %36

36:                                               ; preds = %92, %21
  %37 = load i64, ptr %5, align 8, !tbaa !56
  %38 = load ptr, ptr %4, align 8, !tbaa !107
  %39 = getelementptr inbounds nuw %struct.oid_array, ptr %38, i32 0, i32 1
  %40 = load i64, ptr %39, align 8, !tbaa !114
  %41 = icmp ult i64 %37, %40
  br i1 %41, label %43, label %42

42:                                               ; preds = %36
  store i32 4, ptr %6, align 4
  call void @llvm.lifetime.end.p0(i64 8, ptr %5) #12
  br label %95

43:                                               ; preds = %36
  %44 = load ptr, ptr @the_repository, align 8, !tbaa !4
  %45 = load ptr, ptr %4, align 8, !tbaa !107
  %46 = getelementptr inbounds nuw %struct.oid_array, ptr %45, i32 0, i32 0
  %47 = load ptr, ptr %46, align 8, !tbaa !116
  %48 = load i64, ptr %5, align 8, !tbaa !56
  %49 = getelementptr inbounds nuw %struct.object_id, ptr %47, i64 %48
  %50 = call i32 @repo_has_object_file(ptr noundef %44, ptr noundef %49)
  %51 = icmp ne i32 %50, 0
  br i1 %51, label %52, label %81

52:                                               ; preds = %43
  call void @llvm.lifetime.start.p0(i64 8, ptr %7) #12
  %53 = load ptr, ptr @the_repository, align 8, !tbaa !4
  %54 = load ptr, ptr %4, align 8, !tbaa !107
  %55 = getelementptr inbounds nuw %struct.oid_array, ptr %54, i32 0, i32 0
  %56 = load ptr, ptr %55, align 8, !tbaa !116
  %57 = load i64, ptr %5, align 8, !tbaa !56
  %58 = getelementptr inbounds nuw %struct.object_id, ptr %56, i64 %57
  %59 = call ptr @lookup_commit_graft(ptr noundef %53, ptr noundef %58)
  store ptr %59, ptr %7, align 8, !tbaa !42
  %60 = load ptr, ptr %7, align 8, !tbaa !42
  %61 = icmp ne ptr %60, null
  br i1 %61, label %62, label %68

62:                                               ; preds = %52
  %63 = load ptr, ptr %7, align 8, !tbaa !42
  %64 = getelementptr inbounds nuw %struct.commit_graft, ptr %63, i32 0, i32 1
  %65 = load i32, ptr %64, align 4, !tbaa !11
  %66 = icmp slt i32 %65, 0
  br i1 %66, label %67, label %68

67:                                               ; preds = %62
  store i32 6, ptr %6, align 4
  br label %78

68:                                               ; preds = %62, %52
  %69 = load i64, ptr %5, align 8, !tbaa !56
  %70 = load ptr, ptr %3, align 8, !tbaa !129
  %71 = getelementptr inbounds nuw %struct.shallow_info, ptr %70, i32 0, i32 1
  %72 = load ptr, ptr %71, align 8, !tbaa !135
  %73 = load ptr, ptr %3, align 8, !tbaa !129
  %74 = getelementptr inbounds nuw %struct.shallow_info, ptr %73, i32 0, i32 2
  %75 = load i64, ptr %74, align 8, !tbaa !137
  %76 = add i64 %75, 1
  store i64 %76, ptr %74, align 8, !tbaa !137
  %77 = getelementptr inbounds nuw i64, ptr %72, i64 %75
  store i64 %69, ptr %77, align 8, !tbaa !56
  store i32 0, ptr %6, align 4
  br label %78

78:                                               ; preds = %68, %67
  call void @llvm.lifetime.end.p0(i64 8, ptr %7) #12
  %79 = load i32, ptr %6, align 4
  switch i32 %79, label %96 [
    i32 0, label %80
    i32 6, label %92
  ]

80:                                               ; preds = %78
  br label %91

81:                                               ; preds = %43
  %82 = load i64, ptr %5, align 8, !tbaa !56
  %83 = load ptr, ptr %3, align 8, !tbaa !129
  %84 = getelementptr inbounds nuw %struct.shallow_info, ptr %83, i32 0, i32 3
  %85 = load ptr, ptr %84, align 8, !tbaa !136
  %86 = load ptr, ptr %3, align 8, !tbaa !129
  %87 = getelementptr inbounds nuw %struct.shallow_info, ptr %86, i32 0, i32 4
  %88 = load i64, ptr %87, align 8, !tbaa !138
  %89 = add i64 %88, 1
  store i64 %89, ptr %87, align 8, !tbaa !138
  %90 = getelementptr inbounds nuw i64, ptr %85, i64 %88
  store i64 %82, ptr %90, align 8, !tbaa !56
  br label %91

91:                                               ; preds = %81, %80
  br label %92

92:                                               ; preds = %91, %78
  %93 = load i64, ptr %5, align 8, !tbaa !56
  %94 = add i64 %93, 1
  store i64 %94, ptr %5, align 8, !tbaa !56
  br label %36, !llvm.loop !139

95:                                               ; preds = %20, %42
  ret void

96:                                               ; preds = %78
  unreachable
}