; Function Attrs: nounwind uwtable
define dso_local void @prepare_shallow_info(ptr noundef captures(none) initializes((0, 96)) %0, ptr noundef %1) local_unnamed_addr #0 {
  %3 = load i32, ptr getelementptr inbounds nuw (i8, ptr @trace_shallow, i64 8), align 8, !tbaa !104
  %.not.i = icmp eq i32 %3, 0
  %4 = load i8, ptr getelementptr inbounds nuw (i8, ptr @trace_shallow, i64 12), align 4
  %5 = and i8 %4, 1
  %.not30 = icmp ne i8 %5, 0
  %.not = select i1 %.not.i, i1 %.not30, i1 false
  br i1 %.not, label %7, label %6

6:                                                ; preds = %2
  tail call void (ptr, i32, ptr, ptr, ...) @trace_printf_key_fl(ptr noundef nonnull @.str, i32 noundef 469, ptr noundef nonnull @trace_shallow, ptr noundef nonnull @.str.11) #15
  br label %7

7:                                                ; preds = %2, %6
  %8 = getelementptr inbounds nuw i8, ptr %0, i64 8
  tail call void @llvm.memset.p0.i64(ptr noundef nonnull align 8 dereferenceable(96) %8, i8 0, i64 88, i1 false)
  store ptr %1, ptr %0, align 8, !tbaa !106
  %.not24 = icmp eq ptr %1, null
  br i1 %.not24, label %.loopexit, label %9

9:                                                ; preds = %7
  %10 = getelementptr inbounds nuw i8, ptr %1, i64 8
  %11 = load i64, ptr %10, align 8, !tbaa !86
  %mul.ov.i = icmp ugt i64 %11, 2305843009213693951
  br i1 %mul.ov.i, label %12, label %st_mult.exit

12:                                               ; preds = %9
  tail call void (ptr, ...) @die(ptr noundef nonnull @.str.19, i64 noundef 8, i64 noundef %11) #14
  unreachable

st_mult.exit:                                     ; preds = %9
  %13 = shl nuw i64 %11, 3
  %14 = tail call ptr @xmalloc(i64 noundef %13) #15
  %15 = getelementptr inbounds nuw i8, ptr %0, i64 8
  store ptr %14, ptr %15, align 8, !tbaa !111
  %16 = load i64, ptr %10, align 8, !tbaa !86
  %mul.ov.i28 = icmp ugt i64 %16, 2305843009213693951
  br i1 %mul.ov.i28, label %17, label %st_mult.exit29

17:                                               ; preds = %st_mult.exit
  tail call void (ptr, ...) @die(ptr noundef nonnull @.str.19, i64 noundef 8, i64 noundef %16) #14
  unreachable

st_mult.exit29:                                   ; preds = %st_mult.exit
  %18 = shl nuw i64 %16, 3
  %19 = tail call ptr @xmalloc(i64 noundef %18) #15
  %20 = getelementptr inbounds nuw i8, ptr %0, i64 24
  store ptr %19, ptr %20, align 8, !tbaa !112
  %21 = load i64, ptr %10, align 8, !tbaa !86
  %.not32 = icmp eq i64 %21, 0
  br i1 %.not32, label %.loopexit, label %.lr.ph

.lr.ph:                                           ; preds = %st_mult.exit29
  %22 = getelementptr inbounds nuw i8, ptr %0, i64 16
  %23 = getelementptr inbounds nuw i8, ptr %0, i64 32
  br label %24

24:                                               ; preds = %.lr.ph, %48
  %.031 = phi i64 [ 0, %.lr.ph ], [ %49, %48 ]
  %25 = load ptr, ptr @the_repository, align 8, !tbaa !45
  %26 = load ptr, ptr %1, align 8, !tbaa !89
  %27 = getelementptr inbounds nuw %struct.object_id, ptr %26, i64 %.031
  %28 = tail call i32 @repo_has_object_file(ptr noundef %25, ptr noundef %27) #15
  %.not25 = icmp eq i32 %28, 0
  br i1 %.not25, label %43, label %29

29:                                               ; preds = %24
  %30 = load ptr, ptr @the_repository, align 8, !tbaa !45
  %31 = load ptr, ptr %1, align 8, !tbaa !89
  %32 = getelementptr inbounds nuw %struct.object_id, ptr %31, i64 %.031
  %33 = tail call ptr @lookup_commit_graft(ptr noundef %30, ptr noundef %32) #15
  %.not26 = icmp eq ptr %33, null
  br i1 %.not26, label %38, label %34

34:                                               ; preds = %29
  %35 = getelementptr inbounds nuw i8, ptr %33, i64 36
  %36 = load i32, ptr %35, align 4, !tbaa !39
  %37 = icmp slt i32 %36, 0
  br i1 %37, label %48, label %38

38:                                               ; preds = %34, %29
  %39 = load ptr, ptr %15, align 8, !tbaa !111
  %40 = load i64, ptr %22, align 8, !tbaa !113
  %41 = add i64 %40, 1
  store i64 %41, ptr %22, align 8, !tbaa !113
  %42 = getelementptr inbounds nuw i64, ptr %39, i64 %40
  store i64 %.031, ptr %42, align 8, !tbaa !114
  br label %48

43:                                               ; preds = %24
  %44 = load ptr, ptr %20, align 8, !tbaa !112
  %45 = load i64, ptr %23, align 8, !tbaa !115
  %46 = add i64 %45, 1
  store i64 %46, ptr %23, align 8, !tbaa !115
  %47 = getelementptr inbounds nuw i64, ptr %44, i64 %45
  store i64 %.031, ptr %47, align 8, !tbaa !114
  br label %48

48:                                               ; preds = %38, %34, %43
  %49 = add nuw i64 %.031, 1
  %50 = load i64, ptr %10, align 8, !tbaa !86
  %51 = icmp ult i64 %49, %50
  br i1 %51, label %24, label %.loopexit, !llvm.loop !116

.loopexit:                                        ; preds = %48, %st_mult.exit29, %7
  ret void
}